(dp0
Vengine
p1
Vlualatex
p2
sVpackages
p3
c__builtin__
set
p4
((lp5
tp6
Rp7
sVfiles_with_guttermarks
p8
g4
((lp9
S'beamerouterthemeuow.sty'
p10
aS'/Users/thomasgriffiths/Documents/LaTeX/UOW_Beamer/beamerouterthemeuow.sty'
p11
aV/Users/tmg994/Documents/Side-Projects/UOW_Beamer/./beamerouterthemeuow.sty
p12
aV/Users/thomasgriffiths/Documents/LaTeX/UOW_Beamer/./beamerouterthemeuow.sty
p13
atp14
Rp15
sVsynctex
p16
I01
s.