(dp0
Vengine
p1
Vlualatex
p2
sVpackages
p3
c__builtin__
set
p4
((lp5
tp6
Rp7
sVfiles_with_guttermarks
p8
g4
((lp9
V/usr/local/texlive/2015/texmf-dist/tex/latex/microtype/microtype.cfg
p10
aS'beamerfontthemeuow.sty'
p11
aV/usr/local/texlive/2015/texmf-dist/tex/latex/microtype/microtype.sty
p12
aV/Users/tmg994/Documents/Side-Projects/UOW_Beamer/./beamerfontthemeuow.sty
p13
atp14
Rp15
sVsynctex
p16
I01
s.