(dp0
Vengine
p1
S'pdflatex'
p2
sVpackages
p3
c__builtin__
set
p4
((lp5
tp6
Rp7
sVfiles_with_guttermarks
p8
g4
((lp9
V/Users/thomasgriffiths/Documents/LaTeX/UOW_Beamer/./beamercolorthemeuow.sty
p10
aS'beamercolorthemeuow.sty'
p11
aV/Users/tmg994/Documents/Side-Projects/UOW_Beamer/./beamercolorthemeuow.sty
p12
atp13
Rp14
sVsynctex
p15
I01
s.