(dp0
Vengine
p1
Vlualatex
p2
sVpackages
p3
c__builtin__
set
p4
((lp5
tp6
Rp7
sVfiles_with_guttermarks
p8
g4
((lp9
V/usr/local/texlive/2015/texmf-dist/tex/latex/microtype/microtype.sty
p10
aV/Users/tmg994/Documents/Side-Projects/UOW_Beamer/./beamerinnerthemeuow.sty
p11
aS'beamerinnerthemeuow.sty'
p12
aV/usr/local/texlive/2015/texmf-dist/tex/latex/microtype/microtype.cfg
p13
atp14
Rp15
sVsynctex
p16
I01
s.