(dp0
Vengine
p1
Vlualatex
p2
sVpackages
p3
c__builtin__
set
p4
((lp5
Vtikz
p6
aVfontspec
p7
aVchemmacros
p8
aVmetalogo
p9
aVccicons
p10
atp11
Rp12
sVfiles_with_guttermarks
p13
g4
((lp14
S'demo.tex'
p15
aV/Users/tmg994/Documents/Side-Projects/UOW_Beamer/./beamerinnerthemeuow.sty
p16
aV/Users/tmg994/Documents/Side-Projects/UOW_Beamer/./demo.tex
p17
aV/Users/tmg994/Documents/Side-Projects/UOW_Beamer/./beamerthemeuow.sty
p18
atp19
Rp20
sVsynctex
p21
I01
s.