(dp0
Vengine
p1
Vlualatex
p2
sVpackages
p3
c__builtin__
set
p4
((lp5
Vtikz
p6
aVlistings
p7
aVchemmacros
p8
aVmetalogo
p9
aVccicons
p10
atp11
Rp12
sVfiles_with_guttermarks
p13
g4
((lp14
V/Users/tmg994/Documents/Side-Projects/UOW_Beamer/./demo.tex
p15
aS'demo.tex'
p16
aV/Users/thomasgriffiths/Documents/LaTeX/UOW_Beamer/demo.tex
p17
aV/Users/tmg994/Documents/Side-Projects/UOW_Beamer/./beamerthemeuow.sty
p18
aV/Users/tmg994/Documents/Side-Projects/UOW_Beamer/./beamerinnerthemeuow.sty
p19
aV/Users/thomasgriffiths/Documents/LaTeX/UOW_Beamer/./demo.tex
p20
atp21
Rp22
sVsynctex
p23
I01
s.