(dp0
Vengine
p1
Vlualatex
p2
sVpackages
p3
c__builtin__
set
p4
((lp5
Vtikz
p6
aVchemmacros
p7
aVccicons
p8
atp9
Rp10
sVfiles_with_guttermarks
p11
g4
((lp12
S'demo.tex'
p13
aV/Users/tmg994/Documents/Side-Projects/UOW_Beamer/./demo.tex
p14
atp15
Rp16
sVsynctex
p17
I01
s.