(dp0
Vengine
p1
Vlualatex
p2
sVpackages
p3
c__builtin__
set
p4
((lp5
Vhyperref
p6
aVtikz
p7
aVxcolor
p8
aVmarginnote
p9
aVtitlesec
p10
aVgeometry
p11
aVfontspec
p12
aVmarginfix
p13
aVpdfpages
p14
aVmulticol
p15
aVmicrotype
p16
aVccicons
p17
aVparskip
p18
atp19
Rp20
sVfiles_with_guttermarks
p21
g4
((lp22
V/Users/thomasgriffiths/Documents/LaTeX/UOW_Beamer/documentation/uow_theme.tex
p23
aV/Users/thomasgriffiths/Documents/LaTeX/UOW_Beamer/documentation/./uow_theme.tex
p24
aV/Users/tmg994/Documents/Side-Projects/UOW_Beamer/documentation/uow_theme.tex
p25
aS'uow_theme.tex'
p26
aV/Users/tmg994/Documents/Side-Projects/UOW_Beamer/documentation/./uow_theme.tex
p27
atp28
Rp29
sVsynctex
p30
I01
s.