(dp0
Vengine
p1
Vlualatex
p2
sVpackages
p3
c__builtin__
set
p4
((lp5
Vhyperref
p6
aVmarginfix
p7
aVxcolor
p8
aVtitlesec
p9
aVgeometry
p10
aVfontspec
p11
aVpdfpages
p12
aVmulticol
p13
aVmicrotype
p14
atp15
Rp16
sVfiles_with_guttermarks
p17
g4
((lp18
V/Users/tmg994/Documents/Side-Projects/UOW_Beamer/documentation/uow_theme.tex
p19
aS'uow_theme.tex'
p20
aV/Users/tmg994/Documents/Side-Projects/UOW_Beamer/documentation/./uow_theme.tex
p21
atp22
Rp23
sVsynctex
p24
I01
s.