(dp0
Vengine
p1
Vlualatex
p2
sVpackages
p3
c__builtin__
set
p4
((lp5
Vhyperref
p6
aVtikz
p7
aVxcolor
p8
aVmarginnote
p9
aVtitlesec
p10
aVgeometry
p11
aVfontspec
p12
aVparskip
p13
aVmarginfix
p14
aVlipsum
p15
aVmulticol
p16
aVpdfpages
p17
aVccicons
p18
aVmicrotype
p19
atp20
Rp21
sVfiles_with_guttermarks
p22
g4
((lp23
V/Users/thomasgriffiths/Documents/LaTeX/UOW_Beamer/documentation/uow_theme.tex
p24
aV/Users/thomasgriffiths/Documents/LaTeX/UOW_Beamer/documentation/./uow_theme.tex
p25
aV/Users/tmg994/Documents/Side-Projects/UOW_Beamer/documentation/uow_theme.tex
p26
aS'uow_theme.tex'
p27
aV/Users/tmg994/Documents/Side-Projects/UOW_Beamer/documentation/./uow_theme.tex
p28
atp29
Rp30
sVsynctex
p31
I01
s.