(dp0
Vengine
p1
Vlualatex
p2
sVpackages
p3
c__builtin__
set
p4
((lp5
Vhyperref
p6
aVtikz
p7
aVxcolor
p8
aVmarginnote
p9
aVtitlesec
p10
aVgeometry
p11
aVfontspec
p12
aVmarginfix
p13
aVpdfpages
p14
aVmulticol
p15
aVmicrotype
p16
aVparskip
p17
atp18
Rp19
sVfiles_with_guttermarks
p20
g4
((lp21
V/Users/thomasgriffiths/Documents/LaTeX/UOW_Beamer/documentation/uow_theme.tex
p22
aV/Users/thomasgriffiths/Documents/LaTeX/UOW_Beamer/documentation/./uow_theme.tex
p23
aV/Users/tmg994/Documents/Side-Projects/UOW_Beamer/documentation/uow_theme.tex
p24
aS'uow_theme.tex'
p25
aV/Users/tmg994/Documents/Side-Projects/UOW_Beamer/documentation/./uow_theme.tex
p26
atp27
Rp28
sVsynctex
p29
I01
s.